target datalayout = "e-m:e-p270:32:32-p271:32:32-p272:64:64-i64:64-i128:128-f80:128-n8:16:32:64-S128"
target triple = "x86_64-pc-linux-gnu"

%struct.AVRational = type { i32, i32 }
%struct.AVChannelLayout = type { i32, i32, %union.anon.0, ptr }
%union.anon.0 = type { i64 }
%struct.Vp3DecodeContext = type { ptr, i32, i32, i32, i32, i32, i32, i32, i32, %struct.ProgressFrame, %struct.ProgressFrame, %struct.ProgressFrame, i32, [64 x i8], [64 x i8], %struct.HpelDSPContext, %struct.VideoDSPContext, %struct.VP3DSPContext, [64 x i16], i32, i32, i32, [3 x i32], i32, [3 x i32], i32, i32, i32, i32, i32, i32, i32, i32, i32, ptr, i32, i32, i32, i32, i32, i32, i32, i32, [2 x i32], [2 x i32], ptr, [3 x i32], [3 x i32], i8, i8, i32, [2 x ptr], [2 x [64 x i16]], [64 x i32], [384 x [64 x i8]], [2 x [3 x i8]], [2 x [3 x [64 x i8]]], [2 x [3 x [64 x i16]]], [3 x [64 x ptr]], ptr, [3 x [64 x i32]], i32, [3 x ptr], ptr, ptr, [3 x i32], ptr, [8 x i8], [3 x [2 x [3 x [64 x i16]]]], ptr, ptr, ptr, [80 x %struct.HuffTable], [64 x i8], [258 x i32], ptr, [8 x i8] }
%struct.ProgressFrame = type { ptr, ptr }
%struct.HpelDSPContext = type { [4 x [4 x ptr]], [4 x [4 x ptr]], [4 x [4 x ptr]], [4 x ptr] }
%struct.VideoDSPContext = type { ptr, ptr }
%struct.VP3DSPContext = type { ptr, ptr, ptr, ptr, ptr, ptr, ptr, ptr }
%struct.HuffTable = type { [32 x %struct.HuffEntry], i8 }
%struct.HuffEntry = type { i8, i8 }
%struct.AVFrame = type { [8 x ptr], [8 x i32], ptr, i32, i32, i32, i32, i32, %struct.AVRational, i64, i64, %struct.AVRational, i32, ptr, i32, i32, [8 x ptr], ptr, i32, ptr, i32, i32, i32, i32, i32, i32, i32, i64, ptr, i32, ptr, ptr, i64, i64, i64, i64, ptr, %struct.AVChannelLayout, i64 }
%struct.Vp3Fragment = type { i16, i8, i8 }

; Function Attrs: nounwind uwtable
define internal void @apply_loop_filter(ptr noundef %0, i32 noundef %1, i32 noundef %2, i32 noundef %3) #0 {
  %5 = alloca ptr, align 8
  %6 = alloca i32, align 4
  %7 = alloca i32, align 4
  %8 = alloca i32, align 4
  %9 = alloca ptr, align 8
  %10 = alloca i32, align 4
  %11 = alloca i32, align 4
  %12 = alloca i32, align 4
  %13 = alloca i64, align 8
  %14 = alloca ptr, align 8
  %15 = alloca i32, align 4
  %16 = alloca i32, align 4
  %17 = alloca i32, align 4
  store ptr %0, ptr %5, align 8, !tbaa !29
  store i32 %1, ptr %6, align 4, !tbaa !31
  store i32 %2, ptr %7, align 4, !tbaa !31
  store i32 %3, ptr %8, align 4, !tbaa !31
  call void @llvm.lifetime.start.p0(i64 8, ptr %9) #9
  %18 = load ptr, ptr %5, align 8, !tbaa !29
  %19 = getelementptr inbounds nuw %struct.Vp3DecodeContext, ptr %18, i32 0, i32 74
  %20 = getelementptr inbounds [258 x i32], ptr %19, i64 0, i64 0
  %21 = getelementptr inbounds i32, ptr %20, i64 127
  store ptr %21, ptr %9, align 8, !tbaa !56
  call void @llvm.lifetime.start.p0(i64 4, ptr %10) #9
  %22 = load ptr, ptr %5, align 8, !tbaa !29
  %23 = getelementptr inbounds nuw %struct.Vp3DecodeContext, ptr %22, i32 0, i32 43
  %24 = load i32, ptr %6, align 4, !tbaa !31
  %25 = icmp ne i32 %24, 0
  %26 = xor i1 %25, true
  %27 = xor i1 %26, true
  %28 = zext i1 %27 to i32
  %29 = sext i32 %28 to i64
  %30 = getelementptr inbounds [2 x i32], ptr %23, i64 0, i64 %29
  %31 = load i32, ptr %30, align 4, !tbaa !31
  store i32 %31, ptr %10, align 4, !tbaa !31
  call void @llvm.lifetime.start.p0(i64 4, ptr %11) #9
  %32 = load ptr, ptr %5, align 8, !tbaa !29
  %33 = getelementptr inbounds nuw %struct.Vp3DecodeContext, ptr %32, i32 0, i32 44
  %34 = load i32, ptr %6, align 4, !tbaa !31
  %35 = icmp ne i32 %34, 0
  %36 = xor i1 %35, true
  %37 = xor i1 %36, true
  %38 = zext i1 %37 to i32
  %39 = sext i32 %38 to i64
  %40 = getelementptr inbounds [2 x i32], ptr %33, i64 0, i64 %39
  %41 = load i32, ptr %40, align 4, !tbaa !31
  store i32 %41, ptr %11, align 4, !tbaa !31
  call void @llvm.lifetime.start.p0(i64 4, ptr %12) #9
  %42 = load ptr, ptr %5, align 8, !tbaa !29
  %43 = getelementptr inbounds nuw %struct.Vp3DecodeContext, ptr %42, i32 0, i32 46
  %44 = load i32, ptr %6, align 4, !tbaa !31
  %45 = sext i32 %44 to i64
  %46 = getelementptr inbounds [3 x i32], ptr %43, i64 0, i64 %45
  %47 = load i32, ptr %46, align 4, !tbaa !31
  %48 = load i32, ptr %7, align 4, !tbaa !31
  %49 = load i32, ptr %10, align 4, !tbaa !31
  %50 = mul nsw i32 %48, %49
  %51 = add nsw i32 %47, %50
  store i32 %51, ptr %12, align 4, !tbaa !31
  call void @llvm.lifetime.start.p0(i64 8, ptr %13) #9
  %52 = load ptr, ptr %5, align 8, !tbaa !29
  %53 = getelementptr inbounds nuw %struct.Vp3DecodeContext, ptr %52, i32 0, i32 11
  %54 = getelementptr inbounds nuw %struct.ProgressFrame, ptr %53, i32 0, i32 0
  %55 = load ptr, ptr %54, align 8, !tbaa !42
  %56 = getelementptr inbounds nuw %struct.AVFrame, ptr %55, i32 0, i32 1
  %57 = load i32, ptr %6, align 4, !tbaa !31
  %58 = sext i32 %57 to i64
  %59 = getelementptr inbounds [8 x i32], ptr %56, i64 0, i64 %58
  %60 = load i32, ptr %59, align 4, !tbaa !31
  %61 = sext i32 %60 to i64
  store i64 %61, ptr %13, align 8, !tbaa !253
  call void @llvm.lifetime.start.p0(i64 8, ptr %14) #9
  %62 = load ptr, ptr %5, align 8, !tbaa !29
  %63 = getelementptr inbounds nuw %struct.Vp3DecodeContext, ptr %62, i32 0, i32 11
  %64 = getelementptr inbounds nuw %struct.ProgressFrame, ptr %63, i32 0, i32 0
  %65 = load ptr, ptr %64, align 8, !tbaa !42
  %66 = getelementptr inbounds nuw %struct.AVFrame, ptr %65, i32 0, i32 0
  %67 = load i32, ptr %6, align 4, !tbaa !31
  %68 = sext i32 %67 to i64
  %69 = getelementptr inbounds [8 x ptr], ptr %66, i64 0, i64 %68
  %70 = load ptr, ptr %69, align 8, !tbaa !53
  store ptr %70, ptr %14, align 8, !tbaa !53
  %71 = load ptr, ptr %5, align 8, !tbaa !29
  %72 = getelementptr inbounds nuw %struct.Vp3DecodeContext, ptr %71, i32 0, i32 19
  %73 = load i32, ptr %72, align 16, !tbaa !88
  %74 = icmp ne i32 %73, 0
  br i1 %74, label %78, label %75

75:                                               ; preds = %4
  %76 = load i64, ptr %13, align 8, !tbaa !253
  %77 = sub nsw i64 0, %76
  store i64 %77, ptr %13, align 8, !tbaa !253
  br label %78

78:                                               ; preds = %75, %4
  %79 = load ptr, ptr %5, align 8, !tbaa !29
  %80 = getelementptr inbounds nuw %struct.Vp3DecodeContext, ptr %79, i32 0, i32 47
  %81 = load i32, ptr %6, align 4, !tbaa !31
  %82 = sext i32 %81 to i64
  %83 = getelementptr inbounds [3 x i32], ptr %80, i64 0, i64 %82
  %84 = load i32, ptr %83, align 4, !tbaa !31
  %85 = sext i32 %84 to i64
  %86 = load i32, ptr %7, align 4, !tbaa !31
  %87 = mul nsw i32 8, %86
  %88 = sext i32 %87 to i64
  %89 = load i64, ptr %13, align 8, !tbaa !253
  %90 = mul nsw i64 %88, %89
  %91 = add nsw i64 %85, %90
  %92 = load ptr, ptr %14, align 8, !tbaa !53
  %93 = getelementptr inbounds i8, ptr %92, i64 %91
  store ptr %93, ptr %14, align 8, !tbaa !53
  call void @llvm.lifetime.start.p0(i64 4, ptr %15) #9
  %94 = load i32, ptr %7, align 4, !tbaa !31
  store i32 %94, ptr %15, align 4, !tbaa !31
  br label %95

95:                                               ; preds = %222, %78
  %96 = load i32, ptr %15, align 4, !tbaa !31
  %97 = load i32, ptr %8, align 4, !tbaa !31
  %98 = icmp slt i32 %96, %97
  br i1 %98, label %100, label %99

99:                                               ; preds = %95
  store i32 2, ptr %16, align 4
  call void @llvm.lifetime.end.p0(i64 4, ptr %15) #9
  br label %225

100:                                              ; preds = %95
  call void @llvm.lifetime.start.p0(i64 4, ptr %17) #9
  store i32 0, ptr %17, align 4, !tbaa !31
  br label %101

101:                                              ; preds = %214, %100
  %102 = load i32, ptr %17, align 4, !tbaa !31
  %103 = load i32, ptr %10, align 4, !tbaa !31
  %104 = icmp slt i32 %102, %103
  br i1 %104, label %106, label %105

105:                                              ; preds = %101
  store i32 5, ptr %16, align 4
  call void @llvm.lifetime.end.p0(i64 4, ptr %17) #9
  br label %217

106:                                              ; preds = %101
  %107 = load ptr, ptr %5, align 8, !tbaa !29
  %108 = getelementptr inbounds nuw %struct.Vp3DecodeContext, ptr %107, i32 0, i32 45
  %109 = load ptr, ptr %108, align 8, !tbaa !64
  %110 = load i32, ptr %12, align 4, !tbaa !31
  %111 = sext i32 %110 to i64
  %112 = getelementptr inbounds %struct.Vp3Fragment, ptr %109, i64 %111
  %113 = getelementptr inbounds nuw %struct.Vp3Fragment, ptr %112, i32 0, i32 1
  %114 = load i8, ptr %113, align 2, !tbaa !191
  %115 = zext i8 %114 to i32
  %116 = icmp ne i32 %115, 8
  br i1 %116, label %117, label %211

117:                                              ; preds = %106
  %118 = load i32, ptr %17, align 4, !tbaa !31
  %119 = icmp sgt i32 %118, 0
  br i1 %119, label %120, label %132

120:                                              ; preds = %117
  %121 = load ptr, ptr %5, align 8, !tbaa !29
  %122 = getelementptr inbounds nuw %struct.Vp3DecodeContext, ptr %121, i32 0, i32 17
  %123 = getelementptr inbounds nuw %struct.VP3DSPContext, ptr %122, i32 0, i32 5
  %124 = load ptr, ptr %123, align 8, !tbaa !263
  %125 = load ptr, ptr %14, align 8, !tbaa !53
  %126 = load i32, ptr %17, align 4, !tbaa !31
  %127 = mul nsw i32 8, %126
  %128 = sext i32 %127 to i64
  %129 = getelementptr inbounds i8, ptr %125, i64 %128
  %130 = load i64, ptr %13, align 8, !tbaa !253
  %131 = load ptr, ptr %9, align 8, !tbaa !56
  call void %124(ptr noundef %129, i64 noundef %130, ptr noundef %131)
  br label %132

132:                                              ; preds = %120, %117
  %133 = load i32, ptr %15, align 4, !tbaa !31
  %134 = icmp sgt i32 %133, 0
  br i1 %134, label %135, label %147

135:                                              ; preds = %132
  %136 = load ptr, ptr %5, align 8, !tbaa !29
  %137 = getelementptr inbounds nuw %struct.Vp3DecodeContext, ptr %136, i32 0, i32 17
  %138 = getelementptr inbounds nuw %struct.VP3DSPContext, ptr %137, i32 0, i32 4
  %139 = load ptr, ptr %138, align 16, !tbaa !264
  %140 = load ptr, ptr %14, align 8, !tbaa !53
  %141 = load i32, ptr %17, align 4, !tbaa !31
  %142 = mul nsw i32 8, %141
  %143 = sext i32 %142 to i64
  %144 = getelementptr inbounds i8, ptr %140, i64 %143
  %145 = load i64, ptr %13, align 8, !tbaa !253
  %146 = load ptr, ptr %9, align 8, !tbaa !56
  call void %139(ptr noundef %144, i64 noundef %145, ptr noundef %146)
  br label %147

147:                                              ; preds = %135, %132
  %148 = load i32, ptr %17, align 4, !tbaa !31
  %149 = load i32, ptr %10, align 4, !tbaa !31
  %150 = sub nsw i32 %149, 1
  %151 = icmp slt i32 %148, %150
  br i1 %151, label %152, label %177

152:                                              ; preds = %147
  %153 = load ptr, ptr %5, align 8, !tbaa !29
  %154 = getelementptr inbounds nuw %struct.Vp3DecodeContext, ptr %153, i32 0, i32 45
  %155 = load ptr, ptr %154, align 8, !tbaa !64
  %156 = load i32, ptr %12, align 4, !tbaa !31
  %157 = add nsw i32 %156, 1
  %158 = sext i32 %157 to i64
  %159 = getelementptr inbounds %struct.Vp3Fragment, ptr %155, i64 %158
  %160 = getelementptr inbounds nuw %struct.Vp3Fragment, ptr %159, i32 0, i32 1
  %161 = load i8, ptr %160, align 2, !tbaa !191
  %162 = zext i8 %161 to i32
  %163 = icmp eq i32 %162, 8
  br i1 %163, label %164, label %177

164:                                              ; preds = %152
  %165 = load ptr, ptr %5, align 8, !tbaa !29
  %166 = getelementptr inbounds nuw %struct.Vp3DecodeContext, ptr %165, i32 0, i32 17
  %167 = getelementptr inbounds nuw %struct.VP3DSPContext, ptr %166, i32 0, i32 5
  %168 = load ptr, ptr %167, align 8, !tbaa !263
  %169 = load ptr, ptr %14, align 8, !tbaa !53
  %170 = load i32, ptr %17, align 4, !tbaa !31
  %171 = mul nsw i32 8, %170
  %172 = sext i32 %171 to i64
  %173 = getelementptr inbounds i8, ptr %169, i64 %172
  %174 = getelementptr inbounds i8, ptr %173, i64 8
  %175 = load i64, ptr %13, align 8, !tbaa !253
  %176 = load ptr, ptr %9, align 8, !tbaa !56
  call void %168(ptr noundef %174, i64 noundef %175, ptr noundef %176)
  br label %177

177:                                              ; preds = %164, %152, %147
  %178 = load i32, ptr %15, align 4, !tbaa !31
  %179 = load i32, ptr %11, align 4, !tbaa !31
  %180 = sub nsw i32 %179, 1
  %181 = icmp slt i32 %178, %180
  br i1 %181, label %182, label %210

182:                                              ; preds = %177
  %183 = load ptr, ptr %5, align 8, !tbaa !29
  %184 = getelementptr inbounds nuw %struct.Vp3DecodeContext, ptr %183, i32 0, i32 45
  %185 = load ptr, ptr %184, align 8, !tbaa !64
  %186 = load i32, ptr %12, align 4, !tbaa !31
  %187 = load i32, ptr %10, align 4, !tbaa !31
  %188 = add nsw i32 %186, %187
  %189 = sext i32 %188 to i64
  %190 = getelementptr inbounds %struct.Vp3Fragment, ptr %185, i64 %189
  %191 = getelementptr inbounds nuw %struct.Vp3Fragment, ptr %190, i32 0, i32 1
  %192 = load i8, ptr %191, align 2, !tbaa !191
  %193 = zext i8 %192 to i32
  %194 = icmp eq i32 %193, 8
  br i1 %194, label %195, label %210

195:                                              ; preds = %182
  %196 = load ptr, ptr %5, align 8, !tbaa !29
  %197 = getelementptr inbounds nuw %struct.Vp3DecodeContext, ptr %196, i32 0, i32 17
  %198 = getelementptr inbounds nuw %struct.VP3DSPContext, ptr %197, i32 0, i32 4
  %199 = load ptr, ptr %198, align 16, !tbaa !264
  %200 = load ptr, ptr %14, align 8, !tbaa !53
  %201 = load i32, ptr %17, align 4, !tbaa !31
  %202 = mul nsw i32 8, %201
  %203 = sext i32 %202 to i64
  %204 = getelementptr inbounds i8, ptr %200, i64 %203
  %205 = load i64, ptr %13, align 8, !tbaa !253
  %206 = mul nsw i64 8, %205
  %207 = getelementptr inbounds i8, ptr %204, i64 %206
  %208 = load i64, ptr %13, align 8, !tbaa !253
  %209 = load ptr, ptr %9, align 8, !tbaa !56
  call void %199(ptr noundef %207, i64 noundef %208, ptr noundef %209)
  br label %210

210:                                              ; preds = %195, %182, %177
  br label %211

211:                                              ; preds = %210, %106
  %212 = load i32, ptr %12, align 4, !tbaa !31
  %213 = add nsw i32 %212, 1
  store i32 %213, ptr %12, align 4, !tbaa !31
  br label %214

214:                                              ; preds = %211
  %215 = load i32, ptr %17, align 4, !tbaa !31
  %216 = add nsw i32 %215, 1
  store i32 %216, ptr %17, align 4, !tbaa !31
  br label %101, !llvm.loop !265

217:                                              ; preds = %105
  %218 = load i64, ptr %13, align 8, !tbaa !253
  %219 = mul nsw i64 8, %218
  %220 = load ptr, ptr %14, align 8, !tbaa !53
  %221 = getelementptr inbounds i8, ptr %220, i64 %219
  store ptr %221, ptr %14, align 8, !tbaa !53
  br label %222

222:                                              ; preds = %217
  %223 = load i32, ptr %15, align 4, !tbaa !31
  %224 = add nsw i32 %223, 1
  store i32 %224, ptr %15, align 4, !tbaa !31
  br label %95, !llvm.loop !266

225:                                              ; preds = %99
  call void @llvm.lifetime.end.p0(i64 8, ptr %14) #9
  call void @llvm.lifetime.end.p0(i64 8, ptr %13) #9
  call void @llvm.lifetime.end.p0(i64 4, ptr %12) #9
  call void @llvm.lifetime.end.p0(i64 4, ptr %11) #9
  call void @llvm.lifetime.end.p0(i64 4, ptr %10) #9
  call void @llvm.lifetime.end.p0(i64 8, ptr %9) #9
  ret void
}