; Function Attrs: nounwind uwtable
define internal fastcc void @apply_loop_filter(ptr noundef %0, i32 noundef range(i32 -2147483648, 3) %1, i32 noundef %2, i32 noundef %3) unnamed_addr #0 {
  %5 = getelementptr inbounds nuw i8, ptr %0, i64 37780
  %6 = getelementptr inbounds nuw i8, ptr %0, i64 968
  %7 = icmp ne i32 %1, 0
  %8 = zext i1 %7 to i64
  %9 = getelementptr inbounds nuw [2 x i32], ptr %6, i64 0, i64 %8
  %10 = load i32, ptr %9, align 4, !tbaa !42
  %11 = sext i32 %1 to i64
  %12 = getelementptr inbounds nuw i8, ptr %0, i64 72
  %13 = load ptr, ptr %12, align 8, !tbaa !38
  %14 = getelementptr inbounds nuw i8, ptr %13, i64 64
  %15 = getelementptr inbounds [8 x i32], ptr %14, i64 0, i64 %11
  %16 = load i32, ptr %15, align 4, !tbaa !42
  %17 = sext i32 %16 to i64
  %18 = getelementptr inbounds nuw i8, ptr %0, i64 848
  %19 = load i32, ptr %18, align 16, !tbaa !146
  %.not = icmp eq i32 %19, 0
  %20 = sub nsw i64 0, %17
  %spec.select = select i1 %.not, i64 %20, i64 %17
  %21 = icmp slt i32 %2, %3
  br i1 %21, label %.preheader.lr.ph, label %._crit_edge78

.preheader.lr.ph:                                 ; preds = %4
  %22 = getelementptr inbounds nuw i8, ptr %0, i64 976
  %23 = getelementptr inbounds nuw [2 x i32], ptr %22, i64 0, i64 %8
  %24 = load i32, ptr %23, align 4, !tbaa !42
  %25 = icmp sgt i32 %10, 0
  %26 = getelementptr inbounds nuw i8, ptr %0, i64 984
  %27 = getelementptr inbounds nuw i8, ptr %0, i64 696
  %28 = getelementptr inbounds nuw i8, ptr %0, i64 688
  %29 = add nsw i32 %24, -1
  %30 = shl nsw i64 %spec.select, 3
  br i1 %25, label %.preheader.us.preheader, label %._crit_edge78

.preheader.us.preheader:                          ; preds = %.preheader.lr.ph
  %31 = add nsw i32 %10, -1
  %32 = getelementptr inbounds nuw i8, ptr %0, i64 992
  %33 = getelementptr inbounds [3 x i32], ptr %32, i64 0, i64 %11
  %34 = load i32, ptr %33, align 4, !tbaa !42
  %35 = mul nsw i32 %10, %2
  %36 = add nsw i32 %34, %35
  %37 = getelementptr inbounds [8 x ptr], ptr %13, i64 0, i64 %11
  %38 = load ptr, ptr %37, align 8, !tbaa !53
  %39 = shl nsw i32 %2, 3
  %40 = sext i32 %39 to i64
  %41 = mul nsw i64 %spec.select, %40
  %42 = getelementptr i8, ptr %38, i64 %41
  %43 = getelementptr inbounds nuw i8, ptr %0, i64 1004
  %44 = getelementptr inbounds [3 x i32], ptr %43, i64 0, i64 %11
  %45 = load i32, ptr %44, align 4, !tbaa !42
  %46 = sext i32 %45 to i64
  %47 = getelementptr i8, ptr %42, i64 %46
  %48 = zext nneg i32 %31 to i64
  %49 = zext nneg i32 %10 to i64
  %wide.trip.count = zext nneg i32 %10 to i64
  %wide.trip.count102 = zext nneg i32 %10 to i64
  br label %.preheader.us

.preheader.us:                                    ; preds = %.preheader.us.preheader, %._crit_edge.us
  %.06377.us = phi i32 [ %78, %._crit_edge.us ], [ %2, %.preheader.us.preheader ]
  %.06475.us = phi ptr [ %invariant.gep72.us, %._crit_edge.us ], [ %47, %.preheader.us.preheader ]
  %.06674.us = phi i32 [ %.us-phi.us, %._crit_edge.us ], [ %36, %.preheader.us.preheader ]
  %invariant.gep.us = getelementptr inbounds nuw i8, ptr %.06475.us, i64 8
  %50 = icmp sgt i32 %.06377.us, 0
  %51 = icmp slt i32 %.06377.us, %29
  %invariant.gep72.us = getelementptr i8, ptr %.06475.us, i64 %30
  %.fr.us = freeze i1 %51
  %52 = sext i32 %.06674.us to i64
  br i1 %.fr.us, label %.lr.ph.split.us.us, label %.lr.ph.split.us86

.lr.ph.split.us86:                                ; preds = %.preheader.us, %77
  %indvars.iv90 = phi i64 [ %indvars.iv.next91, %77 ], [ %52, %.preheader.us ]
  %indvars.iv = phi i64 [ %indvars.iv.next, %77 ], [ 0, %.preheader.us ]
  %53 = load ptr, ptr %26, align 8, !tbaa !67
  %54 = getelementptr inbounds %struct.Vp3Fragment, ptr %53, i64 %indvars.iv90, i32 1
  %55 = load i8, ptr %54, align 2, !tbaa !109
  %.not68.us81 = icmp eq i8 %55, 8
  br i1 %.not68.us81, label %77, label %56

56:                                               ; preds = %.lr.ph.split.us86
  %.not69.us82 = icmp eq i64 %indvars.iv, 0
  br i1 %.not69.us82, label %61, label %57

57:                                               ; preds = %56
  %58 = load ptr, ptr %27, align 8, !tbaa !254
  %59 = shl nsw i64 %indvars.iv, 3
  %60 = getelementptr inbounds nuw i8, ptr %.06475.us, i64 %59
  tail call void %58(ptr noundef nonnull %60, i64 noundef %spec.select, ptr noundef nonnull %5) #9
  br label %61

61:                                               ; preds = %57, %56
  br i1 %50, label %62, label %66

62:                                               ; preds = %61
  %63 = load ptr, ptr %28, align 16, !tbaa !255
  %64 = shl nsw i64 %indvars.iv, 3
  %65 = getelementptr inbounds nuw i8, ptr %.06475.us, i64 %64
  tail call void %63(ptr noundef %65, i64 noundef %spec.select, ptr noundef nonnull %5) #9
  br label %66

66:                                               ; preds = %62, %61
  %67 = icmp samesign ult i64 %indvars.iv, %48
  br i1 %67, label %68, label %77

68:                                               ; preds = %66
  %69 = load ptr, ptr %26, align 8, !tbaa !67
  %70 = getelementptr %struct.Vp3Fragment, ptr %69, i64 %indvars.iv90
  %71 = getelementptr i8, ptr %70, i64 6
  %72 = load i8, ptr %71, align 2, !tbaa !109
  %73 = icmp eq i8 %72, 8
  br i1 %73, label %74, label %77

74:                                               ; preds = %68
  %75 = load ptr, ptr %27, align 8, !tbaa !254
  %76 = shl nsw i64 %indvars.iv, 3
  %gep.us83 = getelementptr inbounds nuw i8, ptr %invariant.gep.us, i64 %76
  tail call void %75(ptr noundef nonnull %gep.us83, i64 noundef %spec.select, ptr noundef nonnull %5) #9
  br label %77

77:                                               ; preds = %66, %68, %74, %.lr.ph.split.us86
  %indvars.iv.next91 = add nsw i64 %indvars.iv90, 1
  %indvars.iv.next = add nuw nsw i64 %indvars.iv, 1
  %exitcond.not = icmp eq i64 %indvars.iv.next, %wide.trip.count
  br i1 %exitcond.not, label %._crit_edge.us, label %.lr.ph.split.us86, !llvm.loop !256

._crit_edge.us:                                   ; preds = %77, %111
  %.us-phi.us = add i32 %10, %.06674.us
  %78 = add i32 %.06377.us, 1
  %exitcond104.not = icmp eq i32 %78, %3
  br i1 %exitcond104.not, label %._crit_edge78, label %.preheader.us, !llvm.loop !257

.lr.ph.split.us.us:                               ; preds = %.preheader.us, %111
  %indvars.iv97 = phi i64 [ %indvars.iv.next98, %111 ], [ %52, %.preheader.us ]
  %indvars.iv95 = phi i64 [ %indvars.iv.next96, %111 ], [ 0, %.preheader.us ]
  %79 = load ptr, ptr %26, align 8, !tbaa !67
  %80 = getelementptr inbounds %struct.Vp3Fragment, ptr %79, i64 %indvars.iv97, i32 1
  %81 = load i8, ptr %80, align 2, !tbaa !109
  %.not68.us.us = icmp eq i8 %81, 8
  br i1 %.not68.us.us, label %111, label %82

82:                                               ; preds = %.lr.ph.split.us.us
  %.not69.us.us = icmp eq i64 %indvars.iv95, 0
  br i1 %.not69.us.us, label %87, label %83

83:                                               ; preds = %82
  %84 = load ptr, ptr %27, align 8, !tbaa !254
  %85 = shl nsw i64 %indvars.iv95, 3
  %86 = getelementptr inbounds nuw i8, ptr %.06475.us, i64 %85
  tail call void %84(ptr noundef nonnull %86, i64 noundef %spec.select, ptr noundef nonnull %5) #9
  br label %87

87:                                               ; preds = %83, %82
  br i1 %50, label %88, label %92

88:                                               ; preds = %87
  %89 = load ptr, ptr %28, align 16, !tbaa !255
  %90 = shl nsw i64 %indvars.iv95, 3
  %91 = getelementptr inbounds nuw i8, ptr %.06475.us, i64 %90
  tail call void %89(ptr noundef %91, i64 noundef %spec.select, ptr noundef nonnull %5) #9
  br label %92

92:                                               ; preds = %88, %87
  %93 = icmp samesign ult i64 %indvars.iv95, %48
  %.pre105 = load ptr, ptr %26, align 8, !tbaa !67
  br i1 %93, label %94, label %102

94:                                               ; preds = %92
  %95 = getelementptr %struct.Vp3Fragment, ptr %.pre105, i64 %indvars.iv97
  %96 = getelementptr i8, ptr %95, i64 6
  %97 = load i8, ptr %96, align 2, !tbaa !109
  %98 = icmp eq i8 %97, 8
  br i1 %98, label %99, label %102

99:                                               ; preds = %94
  %100 = load ptr, ptr %27, align 8, !tbaa !254
  %101 = shl nsw i64 %indvars.iv95, 3
  %gep.us.us = getelementptr inbounds nuw i8, ptr %invariant.gep.us, i64 %101
  tail call void %100(ptr noundef nonnull %gep.us.us, i64 noundef %spec.select, ptr noundef nonnull %5) #9
  %.pre = load ptr, ptr %26, align 8, !tbaa !67
  br label %102

102:                                              ; preds = %99, %94, %92
  %103 = phi ptr [ %.pre, %99 ], [ %.pre105, %94 ], [ %.pre105, %92 ]
  %104 = add nsw i64 %indvars.iv97, %49
  %105 = getelementptr inbounds %struct.Vp3Fragment, ptr %103, i64 %104, i32 1
  %106 = load i8, ptr %105, align 2, !tbaa !109
  %107 = icmp eq i8 %106, 8
  br i1 %107, label %108, label %111

108:                                              ; preds = %102
  %109 = load ptr, ptr %28, align 16, !tbaa !255
  %110 = shl nsw i64 %indvars.iv95, 3
  %gep73.us.us = getelementptr i8, ptr %invariant.gep72.us, i64 %110
  tail call void %109(ptr noundef %gep73.us.us, i64 noundef %spec.select, ptr noundef nonnull %5) #9
  br label %111

111:                                              ; preds = %108, %102, %.lr.ph.split.us.us
  %indvars.iv.next98 = add nsw i64 %indvars.iv97, 1
  %indvars.iv.next96 = add nuw nsw i64 %indvars.iv95, 1
  %exitcond103.not = icmp eq i64 %indvars.iv.next96, %wide.trip.count102
  br i1 %exitcond103.not, label %._crit_edge.us, label %.lr.ph.split.us.us, !llvm.loop !256

._crit_edge78:                                    ; preds = %._crit_edge.us, %.preheader.lr.ph, %4
  ret void
}